target datalayout = "e-m:e-p270:32:32-p271:32:32-p272:64:64-i64:64-i128:128-f80:128-n8:16:32:64-S128"
target triple = "x86_64-pc-linux-gnu"

%"struct.faiss::simd8float32" = type { %"struct.faiss::simd256bit" }
%"struct.faiss::simd256bit" = type { %union.anon.0 }
%union.anon.0 = type { [8 x i32] }
%class.anon.3 = type { i8 }

; Function Attrs: inlinehint mustprogress nounwind uwtable
define linkonce_odr noundef float @_ZZNK5faiss12simd8float32plERKS0_ENKUlffE_clEff(ptr noundef nonnull align 1 dereferenceable(1) %0, float noundef %1, float noundef %2) #4 comdat align 2 {
  %4 = alloca ptr, align 8
  %5 = alloca float, align 4
  %6 = alloca float, align 4
  store ptr %0, ptr %4, align 8, !tbaa !58
  store float %1, ptr %5, align 4, !tbaa !11
  store float %2, ptr %6, align 4, !tbaa !11
  %7 = load float, ptr %5, align 4, !tbaa !11
  %8 = load float, ptr %6, align 4, !tbaa !11
  %9 = fadd float %7, %8
  ret float %9
}

; Function Attrs: mustprogress uwtable
define linkonce_odr void @_ZN5faiss12simd8float3211binary_funcIZNKS0_plERKS0_EUlffE_EES0_S3_S3_OT_(ptr dead_on_unwind noalias writable sret(%"struct.faiss::simd8float32") align 4 %0, ptr noundef nonnull align 4 dereferenceable(32) %1, ptr noundef nonnull align 4 dereferenceable(32) %2, ptr noundef nonnull align 1 dereferenceable(1) %3) #3 comdat align 2 {
  %5 = alloca ptr, align 8
  %6 = alloca ptr, align 8
  %7 = alloca ptr, align 8
  %8 = alloca i32, align 4
  store ptr %1, ptr %5, align 8, !tbaa !54
  store ptr %2, ptr %6, align 8, !tbaa !54
  store ptr %3, ptr %7, align 8, !tbaa !58
  call void @_ZN5faiss12simd8float32C2Ev(ptr noundef nonnull align 4 dereferenceable(32) %0)
  call void @llvm.lifetime.start.p0(i64 4, ptr %8) #13
  store i32 0, ptr %8, align 4, !tbaa !30
  br label %9

9:                                                ; preds = %32, %4
  %10 = load i32, ptr %8, align 4, !tbaa !30
  %11 = icmp slt i32 %10, 8
  br i1 %11, label %13, label %12

12:                                               ; preds = %9
  call void @llvm.lifetime.end.p0(i64 4, ptr %8) #13
  br label %35

13:                                               ; preds = %9
  %14 = load ptr, ptr %7, align 8, !tbaa !58
  %15 = load ptr, ptr %5, align 8, !tbaa !54
  %16 = getelementptr inbounds nuw %"struct.faiss::simd256bit", ptr %15, i32 0, i32 0
  %17 = load i32, ptr %8, align 4, !tbaa !30
  %18 = sext i32 %17 to i64
  %19 = getelementptr inbounds [8 x float], ptr %16, i64 0, i64 %18
  %20 = load float, ptr %19, align 4, !tbaa !68
  %21 = load ptr, ptr %6, align 8, !tbaa !54
  %22 = getelementptr inbounds nuw %"struct.faiss::simd256bit", ptr %21, i32 0, i32 0
  %23 = load i32, ptr %8, align 4, !tbaa !30
  %24 = sext i32 %23 to i64
  %25 = getelementptr inbounds [8 x float], ptr %22, i64 0, i64 %24
  %26 = load float, ptr %25, align 4, !tbaa !68
  %27 = call noundef float @_ZZNK5faiss12simd8float32plERKS0_ENKUlffE_clEff(ptr noundef nonnull align 1 dereferenceable(1) %14, float noundef %20, float noundef %26)
  %28 = getelementptr inbounds nuw %"struct.faiss::simd256bit", ptr %0, i32 0, i32 0
  %29 = load i32, ptr %8, align 4, !tbaa !30
  %30 = sext i32 %29 to i64
  %31 = getelementptr inbounds [8 x float], ptr %28, i64 0, i64 %30
  store float %27, ptr %31, align 4, !tbaa !68
  br label %32

32:                                               ; preds = %13
  %33 = load i32, ptr %8, align 4, !tbaa !30
  %34 = add nsw i32 %33, 1
  store i32 %34, ptr %8, align 4, !tbaa !30
  br label %9, !llvm.loop !78

35:                                               ; preds = %12
  ret void
}

; Function Attrs: mustprogress nounwind uwtable
define linkonce_odr void @_ZN5faiss12simd8float324set1Ef(ptr noundef nonnull align 4 dereferenceable(32) %0, float noundef %1) #0 comdat align 2 {
  %3 = alloca ptr, align 8
  %4 = alloca float, align 4
  %5 = alloca i32, align 4
  store ptr %0, ptr %3, align 8, !tbaa !54
  store float %1, ptr %4, align 4, !tbaa !11
  %6 = load ptr, ptr %3, align 8
  call void @llvm.lifetime.start.p0(i64 4, ptr %5) #13
  store i32 0, ptr %5, align 4, !tbaa !30
  br label %7

7:                                                ; preds = %17, %2
  %8 = load i32, ptr %5, align 4, !tbaa !30
  %9 = icmp slt i32 %8, 8
  br i1 %9, label %11, label %10

10:                                               ; preds = %7
  call void @llvm.lifetime.end.p0(i64 4, ptr %5) #13
  br label %20

11:                                               ; preds = %7
  %12 = load float, ptr %4, align 4, !tbaa !11
  %13 = getelementptr inbounds nuw %"struct.faiss::simd256bit", ptr %6, i32 0, i32 0
  %14 = load i32, ptr %5, align 4, !tbaa !30
  %15 = sext i32 %14 to i64
  %16 = getelementptr inbounds [8 x float], ptr %13, i64 0, i64 %15
  store float %12, ptr %16, align 4, !tbaa !68
  br label %17

17:                                               ; preds = %11
  %18 = load i32, ptr %5, align 4, !tbaa !30
  %19 = add nsw i32 %18, 1
  store i32 %19, ptr %5, align 4, !tbaa !30
  br label %7, !llvm.loop !81

20:                                               ; preds = %10
  ret void
}

; Function Attrs: mustprogress nounwind uwtable
define linkonce_odr void @_ZN5faiss10simd256bitC2Ev(ptr noundef nonnull align 4 dereferenceable(32) %0) unnamed_addr #0 comdat align 2 {
  %2 = alloca ptr, align 8
  store ptr %0, ptr %2, align 8, !tbaa !56
  ret void
}

; Function Attrs: mustprogress nounwind uwtable
define linkonce_odr void @_ZNK5faiss10simd256bit6storeuEPv(ptr noundef nonnull align 4 dereferenceable(32) %0, ptr noundef %1) #0 comdat align 2 {
  %3 = alloca ptr, align 8
  %4 = alloca ptr, align 8
  store ptr %0, ptr %3, align 8, !tbaa !56
  store ptr %1, ptr %4, align 8, !tbaa !58
  %5 = load ptr, ptr %3, align 8
  %6 = load ptr, ptr %4, align 8, !tbaa !58
  %7 = getelementptr inbounds nuw %"struct.faiss::simd256bit", ptr %5, i32 0, i32 0
  %8 = getelementptr inbounds [32 x i8], ptr %7, i64 0, i64 0
  call void @llvm.memcpy.p0.p0.i64(ptr align 1 %6, ptr align 4 %8, i64 32, i1 false)
  ret void
}

; Function Attrs: mustprogress uwtable
define linkonce_odr void @_ZNK5faiss12simd8float32plERKS0_(ptr dead_on_unwind noalias writable sret(%"struct.faiss::simd8float32") align 4 %0, ptr noundef nonnull align 4 dereferenceable(32) %1, ptr noundef nonnull align 4 dereferenceable(32) %2) #3 comdat align 2 {
  %4 = alloca ptr, align 8
  %5 = alloca ptr, align 8
  %6 = alloca %class.anon.3, align 1
  store ptr %1, ptr %4, align 8, !tbaa !54
  store ptr %2, ptr %5, align 8, !tbaa !54
  %7 = load ptr, ptr %4, align 8
  %8 = load ptr, ptr %5, align 8, !tbaa !54
  call void @llvm.lifetime.start.p0(i64 1, ptr %6) #13
  call void @_ZN5faiss12simd8float3211binary_funcIZNKS0_plERKS0_EUlffE_EES0_S3_S3_OT_(ptr dead_on_unwind writable sret(%"struct.faiss::simd8float32") align 4 %0, ptr noundef nonnull align 4 dereferenceable(32) %7, ptr noundef nonnull align 4 dereferenceable(32) %8, ptr noundef nonnull align 1 dereferenceable(1) %6)
  call void @llvm.lifetime.end.p0(i64 1, ptr %6) #13
  ret void
}

; Function Attrs: mustprogress nounwind uwtable
define linkonce_odr void @_ZN5faiss10simd256bit5loaduEPKv(ptr noundef nonnull align 4 dereferenceable(32) %0, ptr noundef %1) #0 comdat align 2 {
  %3 = alloca ptr, align 8
  %4 = alloca ptr, align 8
  store ptr %0, ptr %3, align 8, !tbaa !56
  store ptr %1, ptr %4, align 8, !tbaa !58
  %5 = load ptr, ptr %3, align 8
  %6 = getelementptr inbounds nuw %"struct.faiss::simd256bit", ptr %5, i32 0, i32 0
  %7 = getelementptr inbounds [32 x i8], ptr %6, i64 0, i64 0
  %8 = load ptr, ptr %4, align 8, !tbaa !58
  call void @llvm.memcpy.p0.p0.i64(ptr align 4 %7, ptr align 1 %8, i64 32, i1 false)
  ret void
}

; Function Attrs: mustprogress uwtable
define linkonce_odr void @_ZN5faiss12simd8float32C2Ev(ptr noundef nonnull align 4 dereferenceable(32) %0) unnamed_addr #3 comdat align 2 {
  %2 = alloca ptr, align 8
  store ptr %0, ptr %2, align 8, !tbaa !54
  %3 = load ptr, ptr %2, align 8
  call void @_ZN5faiss10simd256bitC2Ev(ptr noundef nonnull align 4 dereferenceable(32) %3)
  ret void
}

; Function Attrs: mustprogress uwtable
define linkonce_odr void @_ZN5faiss12simd8float32C2Ef(ptr noundef nonnull align 4 dereferenceable(32) %0, float noundef %1) unnamed_addr #3 comdat align 2 {
  %3 = alloca ptr, align 8
  %4 = alloca float, align 4
  store ptr %0, ptr %3, align 8, !tbaa !54
  store float %1, ptr %4, align 4, !tbaa !11
  %5 = load ptr, ptr %3, align 8
  call void @_ZN5faiss10simd256bitC2Ev(ptr noundef nonnull align 4 dereferenceable(32) %5)
  %6 = load float, ptr %4, align 4, !tbaa !11
  call void @_ZN5faiss12simd8float324set1Ef(ptr noundef nonnull align 4 dereferenceable(32) %5, float noundef %6)
  ret void
}

; Function Attrs: mustprogress uwtable
define void @_ZN5faiss8fvec_addEmPKffPf(i64 noundef %0, ptr noundef %1, float noundef %2, ptr noundef %3) #3 {
  %5 = alloca i64, align 8
  %6 = alloca ptr, align 8
  %7 = alloca float, align 4
  %8 = alloca ptr, align 8
  %9 = alloca i64, align 8
  %10 = alloca %"struct.faiss::simd8float32", align 4
  %11 = alloca %"struct.faiss::simd8float32", align 4
  %12 = alloca %"struct.faiss::simd8float32", align 4
  %13 = alloca %"struct.faiss::simd8float32", align 4
  store i64 %0, ptr %5, align 8, !tbaa !9
  store ptr %1, ptr %6, align 8, !tbaa !4
  store float %2, ptr %7, align 4, !tbaa !11
  store ptr %3, ptr %8, align 8, !tbaa !4
  call void @llvm.lifetime.start.p0(i64 8, ptr %9) #13
  call void @llvm.lifetime.start.p0(i64 32, ptr %10) #13
  %14 = load float, ptr %7, align 4, !tbaa !11
  call void @_ZN5faiss12simd8float32C2Ef(ptr noundef nonnull align 4 dereferenceable(32) %10, float noundef %14)
  store i64 0, ptr %9, align 8, !tbaa !9
  br label %15

15:                                               ; preds = %27, %4
  %16 = load i64, ptr %9, align 8, !tbaa !9
  %17 = add i64 %16, 7
  %18 = load i64, ptr %5, align 8, !tbaa !9
  %19 = icmp ult i64 %17, %18
  br i1 %19, label %20, label %30

20:                                               ; preds = %15
  call void @llvm.lifetime.start.p0(i64 32, ptr %11) #13
  call void @_ZN5faiss12simd8float32C2Ev(ptr noundef nonnull align 4 dereferenceable(32) %11)
  call void @llvm.lifetime.start.p0(i64 32, ptr %12) #13
  call void @_ZN5faiss12simd8float32C2Ev(ptr noundef nonnull align 4 dereferenceable(32) %12)
  %21 = load ptr, ptr %6, align 8, !tbaa !4
  %22 = load i64, ptr %9, align 8, !tbaa !9
  %23 = getelementptr inbounds nuw float, ptr %21, i64 %22
  call void @_ZN5faiss10simd256bit5loaduEPKv(ptr noundef nonnull align 4 dereferenceable(32) %12, ptr noundef %23)
  call void @llvm.lifetime.start.p0(i64 32, ptr %13) #13
  call void @_ZNK5faiss12simd8float32plERKS0_(ptr dead_on_unwind writable sret(%"struct.faiss::simd8float32") align 4 %13, ptr noundef nonnull align 4 dereferenceable(32) %12, ptr noundef nonnull align 4 dereferenceable(32) %10)
  call void @llvm.memcpy.p0.p0.i64(ptr align 4 %11, ptr align 4 %13, i64 32, i1 false)
  call void @llvm.lifetime.end.p0(i64 32, ptr %13) #13
  %24 = load ptr, ptr %8, align 8, !tbaa !4
  %25 = load i64, ptr %9, align 8, !tbaa !9
  %26 = getelementptr inbounds nuw float, ptr %24, i64 %25
  call void @_ZNK5faiss10simd256bit6storeuEPv(ptr noundef nonnull align 4 dereferenceable(32) %11, ptr noundef %26)
  call void @llvm.lifetime.end.p0(i64 32, ptr %12) #13
  call void @llvm.lifetime.end.p0(i64 32, ptr %11) #13
  br label %27

27:                                               ; preds = %20
  %28 = load i64, ptr %9, align 8, !tbaa !9
  %29 = add i64 %28, 8
  store i64 %29, ptr %9, align 8, !tbaa !9
  br label %15, !llvm.loop !79

30:                                               ; preds = %15
  br label %31

31:                                               ; preds = %45, %30
  %32 = load i64, ptr %9, align 8, !tbaa !9
  %33 = load i64, ptr %5, align 8, !tbaa !9
  %34 = icmp ult i64 %32, %33
  br i1 %34, label %35, label %48

35:                                               ; preds = %31
  %36 = load ptr, ptr %6, align 8, !tbaa !4
  %37 = load i64, ptr %9, align 8, !tbaa !9
  %38 = getelementptr inbounds nuw float, ptr %36, i64 %37
  %39 = load float, ptr %38, align 4, !tbaa !11
  %40 = load float, ptr %7, align 4, !tbaa !11
  %41 = fadd float %39, %40
  %42 = load ptr, ptr %8, align 8, !tbaa !4
  %43 = load i64, ptr %9, align 8, !tbaa !9
  %44 = getelementptr inbounds nuw float, ptr %42, i64 %43
  store float %41, ptr %44, align 4, !tbaa !11
  br label %45

45:                                               ; preds = %35
  %46 = load i64, ptr %9, align 8, !tbaa !9
  %47 = add i64 %46, 1
  store i64 %47, ptr %9, align 8, !tbaa !9
  br label %31, !llvm.loop !80

48:                                               ; preds = %31
  call void @llvm.lifetime.end.p0(i64 32, ptr %10) #13
  call void @llvm.lifetime.end.p0(i64 8, ptr %9) #13
  ret void
}