; Function Attrs: mustprogress nofree norecurse nosync nounwind memory(argmem: readwrite, inaccessiblemem: readwrite) uwtable
define void @_ZN5faiss8fvec_addEmPKffPf(i64 noundef %0, ptr noundef readonly captures(none) %1, float noundef %2, ptr noundef writeonly captures(none) %3) local_unnamed_addr #13 {
  %5 = alloca %"struct.faiss::simd8float32", align 4
  %.sroa.0 = alloca [8 x i32], align 4
  %6 = alloca %"struct.faiss::simd8float32", align 4
  %7 = alloca %"struct.faiss::simd8float32", align 4
  call void @llvm.lifetime.start.p0(i64 32, ptr nonnull %5) #17
  br label %8

8:                                                ; preds = %8, %4
  %indvars.iv.i.i = phi i64 [ 0, %4 ], [ %indvars.iv.next.i.i, %8 ]
  %9 = getelementptr inbounds nuw [8 x float], ptr %5, i64 0, i64 %indvars.iv.i.i
  store float %2, ptr %9, align 4, !tbaa !54
  %indvars.iv.next.i.i = add nuw nsw i64 %indvars.iv.i.i, 1
  %exitcond.not.i.i = icmp eq i64 %indvars.iv.next.i.i, 8
  br i1 %exitcond.not.i.i, label %_ZN5faiss12simd8float32C2Ef.exit.preheader, label %8, !llvm.loop !155

_ZN5faiss12simd8float32C2Ef.exit.preheader:       ; preds = %8
  %10 = icmp ugt i64 %0, 7
  br i1 %10, label %.lr.ph, label %.preheader

.preheader:                                       ; preds = %_ZNK5faiss12simd8float32plERKS0_.exit, %_ZN5faiss12simd8float32C2Ef.exit.preheader
  %.0.lcssa = phi i64 [ 0, %_ZN5faiss12simd8float32C2Ef.exit.preheader ], [ %21, %_ZNK5faiss12simd8float32plERKS0_.exit ]
  %11 = icmp ult i64 %.0.lcssa, %0
  br i1 %11, label %.lr.ph20, label %._crit_edge

.lr.ph:                                           ; preds = %_ZN5faiss12simd8float32C2Ef.exit.preheader, %_ZNK5faiss12simd8float32plERKS0_.exit
  %.018 = phi i64 [ %21, %_ZNK5faiss12simd8float32plERKS0_.exit ], [ 0, %_ZN5faiss12simd8float32C2Ef.exit.preheader ]
  call void @llvm.lifetime.start.p0(i64 32, ptr nonnull %.sroa.0)
  call void @llvm.lifetime.start.p0(i64 32, ptr nonnull %6) #17
  %12 = getelementptr inbounds nuw float, ptr %1, i64 %.018
  call void @llvm.memcpy.p0.p0.i64(ptr noundef nonnull align 4 dereferenceable(32) %6, ptr noundef nonnull align 1 dereferenceable(32) %12, i64 32, i1 false)
  call void @llvm.lifetime.start.p0(i64 32, ptr nonnull %7) #17
  tail call void @llvm.experimental.noalias.scope.decl(metadata !156)
  tail call void @llvm.experimental.noalias.scope.decl(metadata !159)
  br label %13

13:                                               ; preds = %13, %.lr.ph
  %indvars.iv.i.i15 = phi i64 [ 0, %.lr.ph ], [ %indvars.iv.next.i.i16, %13 ]
  %14 = getelementptr inbounds nuw [8 x float], ptr %6, i64 0, i64 %indvars.iv.i.i15
  %15 = load float, ptr %14, align 4, !tbaa !54, !noalias !162
  %16 = getelementptr inbounds nuw [8 x float], ptr %5, i64 0, i64 %indvars.iv.i.i15
  %17 = load float, ptr %16, align 4, !tbaa !54, !noalias !162
  %18 = fadd float %15, %17
  %19 = getelementptr inbounds nuw [8 x float], ptr %7, i64 0, i64 %indvars.iv.i.i15
  store float %18, ptr %19, align 4, !tbaa !54, !alias.scope !162
  %indvars.iv.next.i.i16 = add nuw nsw i64 %indvars.iv.i.i15, 1
  %exitcond.not.i.i17 = icmp eq i64 %indvars.iv.next.i.i16, 8
  br i1 %exitcond.not.i.i17, label %_ZNK5faiss12simd8float32plERKS0_.exit, label %13, !llvm.loop !152

_ZNK5faiss12simd8float32plERKS0_.exit:            ; preds = %13
  call void @llvm.memcpy.p0.p0.i64(ptr noundef nonnull align 4 dereferenceable(32) %.sroa.0, ptr noundef nonnull align 4 dereferenceable(32) %7, i64 32, i1 false)
  call void @llvm.lifetime.end.p0(i64 32, ptr nonnull %7) #17
  %20 = getelementptr inbounds nuw float, ptr %3, i64 %.018
  call void @llvm.memcpy.p0.p0.i64(ptr noundef nonnull align 1 dereferenceable(32) %20, ptr noundef nonnull align 4 dereferenceable(32) %.sroa.0, i64 32, i1 false)
  call void @llvm.lifetime.end.p0(i64 32, ptr nonnull %6) #17
  call void @llvm.lifetime.end.p0(i64 32, ptr nonnull %.sroa.0)
  %21 = add i64 %.018, 8
  %22 = or disjoint i64 %21, 7
  %23 = icmp ult i64 %22, %0
  br i1 %23, label %.lr.ph, label %.preheader, !llvm.loop !163

.lr.ph20:                                         ; preds = %.preheader, %.lr.ph20
  %.119 = phi i64 [ %28, %.lr.ph20 ], [ %.0.lcssa, %.preheader ]
  %24 = getelementptr inbounds nuw float, ptr %1, i64 %.119
  %25 = load float, ptr %24, align 4, !tbaa !4
  %26 = fadd float %2, %25
  %27 = getelementptr inbounds nuw float, ptr %3, i64 %.119
  store float %26, ptr %27, align 4, !tbaa !4
  %28 = add nuw i64 %.119, 1
  %exitcond.not = icmp eq i64 %28, %0
  br i1 %exitcond.not, label %._crit_edge, label %.lr.ph20, !llvm.loop !164

._crit_edge:                                      ; preds = %.lr.ph20, %.preheader
  call void @llvm.lifetime.end.p0(i64 32, ptr nonnull %5) #17
  ret void
}